; Function Attrs: mustprogress nofree norecurse nosync nounwind willreturn memory(read, inaccessiblemem: none) uwtable
define hidden noundef zeroext i1 @_ZNK7zstringneERKS_(ptr noundef nonnull readonly align 8 captures(none) dereferenceable(80) %0, ptr noundef nonnull readonly align 8 captures(none) dereferenceable(80) %1) local_unnamed_addr #8 align 2 {
  %3 = getelementptr inbounds nuw i8, ptr %0, i64 8
  %4 = load i32, ptr %3, align 8, !tbaa !16
  %5 = getelementptr inbounds nuw i8, ptr %1, i64 8
  %6 = load i32, ptr %5, align 8, !tbaa !16
  %.not.i = icmp eq i32 %4, %6
  br i1 %.not.i, label %.preheader.i, label %_ZNK7zstringeqERKS_.exit

.preheader.i:                                     ; preds = %2
  %7 = icmp eq i32 %4, 0
  br i1 %7, label %_ZNK7zstringeqERKS_.exit, label %.lr.ph.i

.lr.ph.i:                                         ; preds = %.preheader.i
  %8 = load ptr, ptr %0, align 8, !tbaa !13
  %9 = load ptr, ptr %1, align 8, !tbaa !13
  %wide.trip.count.i = zext i32 %4 to i64
  br label %10

10:                                               ; preds = %10, %.lr.ph.i
  %indvars.iv.i = phi i64 [ 0, %.lr.ph.i ], [ %indvars.iv.next.i, %10 ]
  %11 = getelementptr inbounds nuw i32, ptr %8, i64 %indvars.iv.i
  %12 = load i32, ptr %11, align 4, !tbaa !9
  %13 = getelementptr inbounds nuw i32, ptr %9, i64 %indvars.iv.i
  %14 = load i32, ptr %13, align 4, !tbaa !9
  %.not10.i.not = icmp ne i32 %12, %14
  %indvars.iv.next.i = add nuw nsw i64 %indvars.iv.i, 1
  %exitcond.not.i = icmp eq i64 %indvars.iv.next.i, %wide.trip.count.i
  %or.cond = select i1 %.not10.i.not, i1 true, i1 %exitcond.not.i
  br i1 %or.cond, label %_ZNK7zstringeqERKS_.exit, label %10, !llvm.loop !63

_ZNK7zstringeqERKS_.exit:                         ; preds = %10, %2, %.preheader.i
  %15 = phi i1 [ true, %2 ], [ false, %.preheader.i ], [ %.not10.i.not, %10 ]
  ret i1 %15
}